EXPORTS
    ClockSourceName @1
    GetMicroSeconds @2
    InitTime @3
    JackSleep @4
    SetClockSource @5
    _Z23jack_free_driver_paramsP7_JSList @6
    _Z23jackctl_driver_get_descP14jackctl_driver @7
    _Z25jack_print_driver_optionsP18jack_driver_desc_tP6_iobuf @8
    _Z27jackctl_parse_driver_paramsP14jackctl_driveriPPc @9
    _ZN4Jack10JackDriver10InitializeEv @10
    _ZN4Jack10JackDriver10NotifyXRunEyf @11
    _ZN4Jack10JackDriver11ProcessNullEv @12
    _ZN4Jack10JackDriver11RemoveSlaveEPNS_19JackDriverInterfaceE @13
    _ZN4Jack10JackDriver12ClientNotifyEiPKciiii @14
    _ZN4Jack10JackDriver12CycleIncTimeEv @15
    _ZN4Jack10JackDriver13ProcessSlavesEv @16
    _ZN4Jack10JackDriver13SetBufferSizeEj @17
    _ZN4Jack10JackDriver13SetSampleRateEj @18
    _ZN4Jack10JackDriver15SetupDriverSyncEib @19
    _ZN4Jack10JackDriver16CycleTakeEndTimeEv @20
    _ZN4Jack10JackDriver16NotifyBufferSizeEj @21
    _ZN4Jack10JackDriver16NotifySampleRateEj @22
    _ZN4Jack10JackDriver17IsFixedBufferSizeEv @23
    _ZN4Jack10JackDriver18CycleTakeBeginTimeEv @24
    _ZN4Jack10JackDriver4OpenEbbiibPKcS2_jj @25
    _ZN4Jack10JackDriver4OpenEjjbbiibPKcS2_jj @26
    _ZN4Jack10JackDriver4OpenEv @27
    _ZN4Jack10JackDriver4ReadEv @28
    _ZN4Jack10JackDriver4StopEv @29
    _ZN4Jack10JackDriver5CloseEv @30
    _ZN4Jack10JackDriver5StartEv @31
    _ZN4Jack10JackDriver5WriteEv @32
    _ZN4Jack10JackDriver6AttachEv @33
    _ZN4Jack10JackDriver6DetachEv @34
    _ZN4Jack10JackDriver7ProcessEv @35
    _ZN4Jack10JackDriver8AddSlaveEPNS_19JackDriverInterfaceE @36
    _ZN4Jack10JackDriver9GetMasterEv @37
    _ZN4Jack10JackDriver9GetSlavesEv @38
    _ZN4Jack10JackDriver9SetMasterEb @39
    _ZN4Jack10JackDriverC1EPKcS2_PNS_16JackLockedEngineEPNS_16JackWinSemaphoreE @40
    _ZN4Jack10JackDriverC1Ev @41
    _ZN4Jack10JackDriverC2EPKcS2_PNS_16JackLockedEngineEPNS_16JackWinSemaphoreE @42
    _ZN4Jack10JackDriverC2Ev @43
    _ZN4Jack10JackDriverD0Ev @44
    _ZN4Jack10JackDriverD1Ev @45
    _ZN4Jack10JackDriverD2Ev @46
    _ZN4Jack10JackEngine10NotifyXRunEi @47
    _ZN4Jack10JackEngine10NotifyXRunEyf @48
    _ZN4Jack10JackEngine10PortRenameEijPKc @49
    _ZN4Jack10JackEngine11ClientCheckEPKcPciiPi @50
    _ZN4Jack10JackEngine11PortConnectEiPKcS2_ @51
    _ZN4Jack10JackEngine11PortConnectEijj @52
    _ZN4Jack10JackEngine11ProcessNextEy @53
    _ZN4Jack10JackEngine12GetClientPIDEPKc @54
    _ZN4Jack10JackEngine12NotifyClientEiiiii @55
    _ZN4Jack10JackEngine12PortRegisterEiPKcS2_jjPj @56
    _ZN4Jack10JackEngine13NotifyClientsEiiii @57
    _ZN4Jack10JackEngine13ReleaseRefnumEi @58
    _ZN4Jack10JackEngine14AllocateRefnumEv @59
    _ZN4Jack10JackEngine14ClientActivateEib @60
    _ZN4Jack10JackEngine14ClientCloseAuxEiPNS_19JackClientInterfaceEb @61
    _ZN4Jack10JackEngine14NotifyActivateEi @62
    _ZN4Jack10JackEngine14PortDisconnectEiPKcS2_ @63
    _ZN4Jack10JackEngine14PortDisconnectEijj @64
    _ZN4Jack10JackEngine14PortUnRegisterEij @65
    _ZN4Jack10JackEngine14ProcessCurrentEy @66
    _ZN4Jack10JackEngine15ClientCheckNameEPKc @67
    _ZN4Jack10JackEngine15GetClientRefNumEPKc @68
    _ZN4Jack10JackEngine15NotifyAddClientEPNS_19JackClientInterfaceEPKci @69
    _ZN4Jack10JackEngine15NotifyFreewheelEb @70
    _ZN4Jack10JackEngine16ClientDeactivateEi @71
    _ZN4Jack10JackEngine16NotifyBufferSizeEj @72
    _ZN4Jack10JackEngine16NotifyPortRenameEj @73
    _ZN4Jack10JackEngine16NotifySampleRateEj @74
    _ZN4Jack10JackEngine17NotifyPortConnectEjjb @75
    _ZN4Jack10JackEngine18ClientExternalOpenEPKciPiS3_S3_S3_ @76
    _ZN4Jack10JackEngine18ClientInternalOpenEPKcPiPPNS_17JackEngineControlEPPNS_16JackGraphManagerEPNS_19JackClientInterfaceEb @77
    _ZN4Jack10JackEngine18GenerateUniqueNameEPc @78
    _ZN4Jack10JackEngine18NotifyGraphReorderEv @79
    _ZN4Jack10JackEngine18NotifyRemoveClientEPKci @80
    _ZN4Jack10JackEngine19ClientExternalCloseEi @81
    _ZN4Jack10JackEngine19ClientInternalCloseEib @82
    _ZN4Jack10JackEngine20InternalClientHandleEPKcPiS3_ @83
    _ZN4Jack10JackEngine20InternalClientUnloadEiPi @84
    _ZN4Jack10JackEngine21GetInternalClientNameEiPc @85
    _ZN4Jack10JackEngine21NotifyPortRegistationEjb @86
    _ZN4Jack10JackEngine4OpenEv @87
    _ZN4Jack10JackEngine5CloseEv @88
    _ZN4Jack10JackEngine7ProcessEyy @89
    _ZN4Jack10JackEngine9CheckXRunEy @90
    _ZN4Jack10JackEngineC1EPNS_16JackGraphManagerEPNS_16JackWinSemaphoreEPNS_17JackEngineControlE @91
    _ZN4Jack10JackEngineC2EPNS_16JackGraphManagerEPNS_16JackWinSemaphoreEPNS_17JackEngineControlE @92
    _ZN4Jack10JackEngineD1Ev @93
    _ZN4Jack10JackEngineD2Ev @94
    _ZN4Jack10JackServer10ClientKillEi @95
    _ZN4Jack10JackServer11RemoveSlaveEP14JackDriverInfo @96
    _ZN4Jack10JackServer12SetFreewheelEb @97
    _ZN4Jack10JackServer12SwitchMasterEP18jack_driver_desc_tP7_JSList @98
    _ZN4Jack10JackServer13SetBufferSizeEj @99
    _ZN4Jack10JackServer15GetGraphManagerEv @100
    _ZN4Jack10JackServer15GetSynchroTableEv @101
    _ZN4Jack10JackServer15ReleaseTimebaseEi @102
    _ZN4Jack10JackServer16GetEngineControlEv @103
    _ZN4Jack10JackServer18InternalClientLoadEPKcS2_PK7_JSListiPiS6_ @104
    _ZN4Jack10JackServer18InternalClientLoadEPKcS2_S2_iPiS3_ @105
    _ZN4Jack10JackServer19SetTimebaseCallbackEii @106
    _ZN4Jack10JackServer21InternalClientLoadAuxEPNS_26JackLoadableInternalClientEPKcS4_iPiS5_ @107
    _ZN4Jack10JackServer4OpenEP18jack_driver_desc_tP7_JSList @108
    _ZN4Jack10JackServer4StopEv @109
    _ZN4Jack10JackServer5CloseEv @110
    _ZN4Jack10JackServer5StartEv @111
    _ZN4Jack10JackServer6NotifyEiii @112
    _ZN4Jack10JackServer8AddSlaveEP18jack_driver_desc_tP7_JSList @113
    _ZN4Jack10JackServer9GetEngineEv @114
    _ZN4Jack10JackServerC1Ebblblb17jack_timer_type_tPKc @115
    _ZN4Jack10JackServerC2Ebblblb17jack_timer_type_tPKc @116
    _ZN4Jack10JackServerD1Ev @117
    _ZN4Jack10JackServerD2Ev @118
    _ZN4Jack10JackShmMemC1Ev @119
    _ZN4Jack10JackShmMemC2Ev @120
    _ZN4Jack10JackShmMemdlEPv @121
    _ZN4Jack10JackShmMemdlEPvj @122
    _ZN4Jack10JackShmMemnwEj @123
    _ZN4Jack10JackShmMemnwEjPv @124
    _ZN4Jack10PrintErrorEi @125
    _ZN4Jack10ThreadExitEv @126
    _ZN4Jack11GetHostNameEPci @127
    _ZN4Jack12SocketAPIEndEv @128
    _ZN4Jack13GetPacketTypeEPNS_15_session_paramsE @129
    _ZN4Jack13JackArgParser10DeleteArgvEPPKc @130
    _ZN4Jack13JackArgParser10FreeParamsEP7_JSList @131
    _ZN4Jack13JackArgParser10GetNumArgvEv @132
    _ZN4Jack13JackArgParser11ParseParamsEP18jack_driver_desc_tPP7_JSList @133
    _ZN4Jack13JackArgParser12GetArgStringEv @134
    _ZN4Jack13JackArgParser7GetArgcEv @135
    _ZN4Jack13JackArgParser7GetArgvEPPc @136
    _ZN4Jack13JackArgParser7GetArgvERSt6vectorISsSaISsEE @137
    _ZN4Jack13JackArgParserC1EPKc @138
    _ZN4Jack13JackArgParserC2EPKc @139
    _ZN4Jack13JackArgParserD1Ev @140
    _ZN4Jack13JackArgParserD2Ev @141
    _ZN4Jack13JackExceptionD0Ev @142
    _ZN4Jack13JackExceptionD1Ev @143
    _ZN4Jack13JackWinThread11GetThreadIDEv @144
    _ZN4Jack13JackWinThread12DropRealTimeEv @145
    _ZN4Jack13JackWinThread13ThreadHandlerEPv@4 @146
    _ZN4Jack13JackWinThread15AcquireRealTimeEi @147
    _ZN4Jack13JackWinThread15AcquireRealTimeEv @148
    _ZN4Jack13JackWinThread15DropRealTimeImpEPv @149
    _ZN4Jack13JackWinThread18AcquireRealTimeImpEPvi @150
    _ZN4Jack13JackWinThread4KillEv @151
    _ZN4Jack13JackWinThread4StopEv @152
    _ZN4Jack13JackWinThread5StartEv @153
    _ZN4Jack13JackWinThread7KillImpEPv @154
    _ZN4Jack13JackWinThread7StopImpEPv @155
    _ZN4Jack13JackWinThread8StartImpEPPviiPFmS1_ES1_ @156
    _ZN4Jack13JackWinThread9StartSyncEv @157
    _ZN4Jack13JackWinThread9TerminateEv @158
    _ZN4Jack13JackWinThreadC1EPNS_21JackRunnableInterfaceE @159
    _ZN4Jack13JackWinThreadC2EPNS_21JackRunnableInterfaceE @160
    _ZN4Jack13JackWinThreadD1Ev @161
    _ZN4Jack13JackWinThreadD2Ev @162
    _ZN4Jack13LockAllMemoryEv @163
    _ZN4Jack13LockMemoryImpEPvj @164
    _ZN4Jack13NetMidiBuffer13DisplayEventsEv @165
    _ZN4Jack13NetMidiBuffer15RenderToNetworkEij @166
    _ZN4Jack13NetMidiBuffer17RenderFromNetworkEij @167
    _ZN4Jack13NetMidiBuffer17RenderToJackPortsEv @168
    _ZN4Jack13NetMidiBuffer19RenderFromJackPortsEv @169
    _ZN4Jack13NetMidiBuffer7GetSizeEv @170
    _ZN4Jack13NetMidiBuffer9GetBufferEi @171
    _ZN4Jack13NetMidiBuffer9SetBufferEiPNS_14JackMidiBufferE @172
    _ZN4Jack13NetMidiBufferC1EPNS_15_session_paramsEjPc @173
    _ZN4Jack13NetMidiBufferC2EPNS_15_session_paramsEjPc @174
    _ZN4Jack13NetMidiBufferD1Ev @175
    _ZN4Jack13NetMidiBufferD2Ev @176
    _ZN4Jack13SetPacketTypeEPNS_15_session_paramsENS_17_sync_packet_typeE @177
    _ZN4Jack13SocketAPIInitEv @178
    _ZN4Jack14JackFrameTimer12IncFrameTimeEjyy @179
    _ZN4Jack14JackFrameTimer13InitFrameTimeEv @180
    _ZN4Jack14JackFrameTimer13ReadFrameTimeEPNS_9JackTimerE @181
    _ZN4Jack14JackFrameTimer14ResetFrameTimeEjyy @182
    _ZN4Jack14JackFrameTimer15IncFrameTimeAuxEjyy @183
    _ZN4Jack14JackFrameTimer16InitFrameTimeAuxEyy @184
    _ZN4Jack14JackMidiBuffer12ReserveEventEji @185
    _ZN4Jack14JackMidiBuffer5ResetEj @186
    _ZN4Jack14JackMidiDriver11ProcessNullEv @187
    _ZN4Jack14JackMidiDriver14GetInputBufferEi @188
    _ZN4Jack14JackMidiDriver15GetOutputBufferEi @189
    _ZN4Jack14JackMidiDriver4OpenEbbiibPKcS2_jj @190
    _ZN4Jack14JackMidiDriver4ReadEv @191
    _ZN4Jack14JackMidiDriver5WriteEv @192
    _ZN4Jack14JackMidiDriver6AttachEv @193
    _ZN4Jack14JackMidiDriver6DetachEv @194
    _ZN4Jack14JackMidiDriver7ProcessEv @195
    _ZN4Jack14JackMidiDriverC1EPKcS2_PNS_16JackLockedEngineEPNS_16JackWinSemaphoreE @196
    _ZN4Jack14JackMidiDriverC2EPKcS2_PNS_16JackLockedEngineEPNS_16JackWinSemaphoreE @197
    _ZN4Jack14JackMidiDriverD0Ev @198
    _ZN4Jack14JackMidiDriverD1Ev @199
    _ZN4Jack14JackMidiDriverD2Ev @200
    _ZN4Jack14MidiBufferHToNEPNS_14JackMidiBufferES1_ @201
    _ZN4Jack14MidiBufferNToHEPNS_14JackMidiBufferES1_ @202
    _ZN4Jack14NetAudioBuffer17RenderToJackPortsEi @203
    _ZN4Jack14NetAudioBuffer19RenderFromJackPortsEi @204
    _ZN4Jack14NetAudioBuffer7GetSizeEv @205
    _ZN4Jack14NetAudioBuffer9GetBufferEi @206
    _ZN4Jack14NetAudioBuffer9SetBufferEiPf @207
    _ZN4Jack14NetAudioBufferC1EPNS_15_session_paramsEjPc @208
    _ZN4Jack14NetAudioBufferC2EPNS_15_session_paramsEjPc @209
    _ZN4Jack14NetAudioBufferD1Ev @210
    _ZN4Jack14NetAudioBufferD2Ev @211
    _ZN4Jack15GetGraphManagerEv @212
    _ZN4Jack15GetSynchroTableEv @213
    _ZN4Jack15JackAudioDriver11ProcessNullEv @214
    _ZN4Jack15JackAudioDriver11ProcessSyncEv @215
    _ZN4Jack15JackAudioDriver12ProcessAsyncEv @216
    _ZN4Jack15JackAudioDriver13SetBufferSizeEj @217
    _ZN4Jack15JackAudioDriver13SetSampleRateEj @218
    _ZN4Jack15JackAudioDriver14GetInputBufferEi @219
    _ZN4Jack15JackAudioDriver15GetOutputBufferEi @220
    _ZN4Jack15JackAudioDriver16GetMonitorBufferEi @221
    _ZN4Jack15JackAudioDriver16ProcessGraphSyncEv @222
    _ZN4Jack15JackAudioDriver17ProcessGraphAsyncEv @223
    _ZN4Jack15JackAudioDriver18WaitUntilNextCycleEv @224
    _ZN4Jack15JackAudioDriver4OpenEbbiibPKcS2_jj @225
    _ZN4Jack15JackAudioDriver4OpenEjjbbiibPKcS2_jj @226
    _ZN4Jack15JackAudioDriver5WriteEv @227
    _ZN4Jack15JackAudioDriver6AttachEv @228
    _ZN4Jack15JackAudioDriver6DetachEv @229
    _ZN4Jack15JackAudioDriver7ProcessEv @230
    _ZN4Jack15JackAudioDriverC1EPKcS2_PNS_16JackLockedEngineEPNS_16JackWinSemaphoreE @231
    _ZN4Jack15JackAudioDriverC2EPKcS2_PNS_16JackLockedEngineEPNS_16JackWinSemaphoreE @232
    _ZN4Jack15JackAudioDriverD0Ev @233
    _ZN4Jack15JackAudioDriverD1Ev @234
    _ZN4Jack15JackAudioDriverD2Ev @235
    _ZN4Jack15UnlockAllMemoryEv @236
    _ZN4Jack15UnlockMemoryImpEPvj @237
    _ZN4Jack16GetEngineControlEv @238
    _ZN4Jack16JackGraphManager10CheckPortsEjj @239
    _ZN4Jack16JackGraphManager10DeactivateEi @240
    _ZN4Jack16JackGraphManager10DisconnectEjj @241
    _ZN4Jack16JackGraphManager10InitRefNumEi @242
    _ZN4Jack16JackGraphManager11GetPortsAuxEPPKcS2_S2_m @243
    _ZN4Jack16JackGraphManager11GetTwoPortsEPKcS2_PjS3_ @244
    _ZN4Jack16JackGraphManager11IsConnectedEjj @245
    _ZN4Jack16JackGraphManager11ReleasePortEij @246
    _ZN4Jack16JackGraphManager12AllocatePortEiPKcS2_13JackPortFlagsj @247
    _ZN4Jack16JackGraphManager12ResumeRefNumEPNS_17JackClientControlEPNS_16JackWinSemaphoreE @248
    _ZN4Jack16JackGraphManager12RunNextGraphEv @249
    _ZN4Jack16JackGraphManager13DirectConnectEii @250
    _ZN4Jack16JackGraphManager13DisconnectAllEj @251
    _ZN4Jack16JackGraphManager13GetInputPortsEiPt @252
    _ZN4Jack16JackGraphManager13SetBufferSizeEj @253
    _ZN4Jack16JackGraphManager13SuspendRefNumEPNS_17JackClientControlEPNS_16JackWinSemaphoreEl @254
    _ZN4Jack16JackGraphManager14GetConnectionsEj @255
    _ZN4Jack16JackGraphManager14GetConnectionsEjPt @256
    _ZN4Jack16JackGraphManager14GetInputRefNumEj @257
    _ZN4Jack16JackGraphManager14GetOutputPortsEiPt @258
    _ZN4Jack16JackGraphManager14RemoveAllPortsEi @259
    _ZN4Jack16JackGraphManager14RequestMonitorEjb @260
    _ZN4Jack16JackGraphManager15AllocatePortAuxEiPKcS2_13JackPortFlags @261
    _ZN4Jack16JackGraphManager15GetOutputRefNumEj @262
    _ZN4Jack16JackGraphManager15IsFinishedGraphEv @263
    _ZN4Jack16JackGraphManager15RunCurrentGraphEv @264
    _ZN4Jack16JackGraphManager16DirectDisconnectEii @265
    _ZN4Jack16JackGraphManager17GetConnectionsAuxEPNS_21JackConnectionManagerEPPKcj @266
    _ZN4Jack16JackGraphManager18DisconnectAllInputEj @267
    _ZN4Jack16JackGraphManager18DisconnectAllPortsEi @268
    _ZN4Jack16JackGraphManager18IsDirectConnectionEii @269
    _ZN4Jack16JackGraphManager19ComputeTotalLatencyEj @270
    _ZN4Jack16JackGraphManager19DisconnectAllOutputEj @271
    _ZN4Jack16JackGraphManager21ComputeTotalLatenciesEv @272
    _ZN4Jack16JackGraphManager22ComputeTotalLatencyAuxEjjPNS_21JackConnectionManagerEi @273
    _ZN4Jack16JackGraphManager4SaveEPNS_21JackConnectionManagerE @274
    _ZN4Jack16JackGraphManager7ConnectEjj @275
    _ZN4Jack16JackGraphManager7GetPortEPKc @276
    _ZN4Jack16JackGraphManager7GetPortEj @277
    _ZN4Jack16JackGraphManager7RestoreEPNS_21JackConnectionManagerE @278
    _ZN4Jack16JackGraphManager8ActivateEi @279
    _ZN4Jack16JackGraphManager8GetPortsEPKcS2_m @280
    _ZN4Jack16JackGraphManager9GetBufferEj @281
    _ZN4Jack16JackGraphManager9GetBufferEjj @282
    _ZN4Jack16JackNetExceptionD0Ev @283
    _ZN4Jack16JackNetInterface12GetNMidiPcktEv @284
    _ZN4Jack16JackNetInterface12IsNextPacketEv @285
    _ZN4Jack16JackNetInterface16SetNetBufferSizeEv @286
    _ZN4Jack16JackNetInterface18SetFramesPerPacketEv @287
    _ZN4Jack16JackNetInterface9SetParamsEv @288
    _ZN4Jack16JackNetInterfaceC1EPKci @289
    _ZN4Jack16JackNetInterfaceC1ERNS_15_session_paramsERNS_16JackNetWinSocketEPKc @290
    _ZN4Jack16JackNetInterfaceC1Ev @291
    _ZN4Jack16JackNetInterfaceC2EPKci @292
    _ZN4Jack16JackNetInterfaceC2ERNS_15_session_paramsERNS_16JackNetWinSocketEPKc @293
    _ZN4Jack16JackNetInterfaceC2Ev @294
    _ZN4Jack16JackNetInterfaceD0Ev @295
    _ZN4Jack16JackNetInterfaceD1Ev @296
    _ZN4Jack16JackNetInterfaceD2Ev @297
    _ZN4Jack16JackNetWinSocket10SetAddressEPKci @298
    _ZN4Jack16JackNetWinSocket10SetTimeOutEi @299
    _ZN4Jack16JackNetWinSocket12SetLocalLoopEv @300
    _ZN4Jack16JackNetWinSocket14JoinMCastGroupEPKc @301
    _ZN4Jack16JackNetWinSocket4BindEv @302
    _ZN4Jack16JackNetWinSocket4RecvEPvji @303
    _ZN4Jack16JackNetWinSocket4SendEPKvji @304
    _ZN4Jack16JackNetWinSocket5CloseEv @305
    _ZN4Jack16JackNetWinSocket5ResetEv @306
    _ZN4Jack16JackNetWinSocket6SendToEPKvji @307
    _ZN4Jack16JackNetWinSocket6SendToEPKvjiPKc @308
    _ZN4Jack16JackNetWinSocket7ConnectEv @309
    _ZN4Jack16JackNetWinSocket7GetNameEPc @310
    _ZN4Jack16JackNetWinSocket7GetPortEv @311
    _ZN4Jack16JackNetWinSocket7SetPortEi @312
    _ZN4Jack16JackNetWinSocket8BindWithEPKc @313
    _ZN4Jack16JackNetWinSocket8BindWithEi @314
    _ZN4Jack16JackNetWinSocket8GetErrorEv @315
    _ZN4Jack16JackNetWinSocket8IsSocketEv @316
    _ZN4Jack16JackNetWinSocket8RecvFromEPvji @317
    _ZN4Jack16JackNetWinSocket9CatchHostEPvji @318
    _ZN4Jack16JackNetWinSocket9ConnectToEPKc @319
    _ZN4Jack16JackNetWinSocket9GetOptionEiiPvPi @320
    _ZN4Jack16JackNetWinSocket9GetRecvIPEv @321
    _ZN4Jack16JackNetWinSocket9GetSendIPEv @322
    _ZN4Jack16JackNetWinSocket9NewSocketEv @323
    _ZN4Jack16JackNetWinSocket9SetOptionEiiPKvi @324
    _ZN4Jack16JackNetWinSocketC1EPKci @325
    _ZN4Jack16JackNetWinSocketC1ERKS0_ @326
    _ZN4Jack16JackNetWinSocketC1Ev @327
    _ZN4Jack16JackNetWinSocketC2EPKci @328
    _ZN4Jack16JackNetWinSocketC2ERKS0_ @329
    _ZN4Jack16JackNetWinSocketC2Ev @330
    _ZN4Jack16JackNetWinSocketD1Ev @331
    _ZN4Jack16JackNetWinSocketD2Ev @332
    _ZN4Jack16JackNetWinSocketaSERKS0_ @333
    _ZN4Jack16PacketHeaderHToNEPNS_14_packet_headerES1_ @334
    _ZN4Jack16PacketHeaderNToHEPNS_14_packet_headerES1_ @335
    _ZN4Jack17GetTransportStateEi @336
    _ZN4Jack17InitLockMemoryImpEPvj @337
    _ZN4Jack17JackEngineControl10NotifyXRunEf @338
    _ZN4Jack17JackEngineControl11CalcCPULoadEPPNS_19JackClientInterfaceEPNS_16JackGraphManagerEyy @339
    _ZN4Jack17JackEngineControl17ResetRollingUsecsEv @340
    _ZN4Jack17JackServerGlobals10fUserCountE @341 DATA
    _ZN4Jack17JackServerGlobals17on_device_acquireE @342 DATA
    _ZN4Jack17JackServerGlobals17on_device_releaseE @343 DATA
    _ZN4Jack17JackServerGlobals4InitEv @344
    _ZN4Jack17JackServerGlobals4StopEv @345
    _ZN4Jack17JackServerGlobals5StartEPKcP18jack_driver_desc_tP7_JSListiiiiii17jack_timer_type_t @346
    _ZN4Jack17JackServerGlobals6DeleteEv @347
    _ZN4Jack17JackServerGlobals7DestroyEv @348
    _ZN4Jack17JackServerGlobals9fInstanceE @349 DATA
    _ZN4Jack17SessionParamsHToNEPNS_15_session_paramsES1_ @350
    _ZN4Jack17SessionParamsNToHEPNS_15_session_paramsES1_ @351
    _ZN4Jack17TransportDataHToNEPNS_19_net_transport_dataES1_ @352
    _ZN4Jack17TransportDataNToHEPNS_19_net_transport_dataES1_ @353
    _ZN4Jack18JackThreadedDriver11ProcessNullEv @354
    _ZN4Jack18JackThreadedDriver11RemoveSlaveEPNS_19JackDriverInterfaceE @355
    _ZN4Jack18JackThreadedDriver12ClientNotifyEiPKciiii @356
    _ZN4Jack18JackThreadedDriver13ProcessSlavesEv @357
    _ZN4Jack18JackThreadedDriver13SetBufferSizeEj @358
    _ZN4Jack18JackThreadedDriver13SetSampleRateEj @359
    _ZN4Jack18JackThreadedDriver17IsFixedBufferSizeEv @360
    _ZN4Jack18JackThreadedDriver4InitEv @361
    _ZN4Jack18JackThreadedDriver4OpenEbbiibPKcS2_jj @362
    _ZN4Jack18JackThreadedDriver4OpenEjjbbiibPKcS2_jj @363
    _ZN4Jack18JackThreadedDriver4OpenEv @364
    _ZN4Jack18JackThreadedDriver4ReadEv @365
    _ZN4Jack18JackThreadedDriver4StopEv @366
    _ZN4Jack18JackThreadedDriver5CloseEv @367
    _ZN4Jack18JackThreadedDriver5StartEv @368
    _ZN4Jack18JackThreadedDriver5WriteEv @369
    _ZN4Jack18JackThreadedDriver6AttachEv @370
    _ZN4Jack18JackThreadedDriver6DetachEv @371
    _ZN4Jack18JackThreadedDriver7ExecuteEv @372
    _ZN4Jack18JackThreadedDriver7ProcessEv @373
    _ZN4Jack18JackThreadedDriver8AddSlaveEPNS_19JackDriverInterfaceE @374
    _ZN4Jack18JackThreadedDriver9GetMasterEv @375
    _ZN4Jack18JackThreadedDriver9GetSlavesEv @376
    _ZN4Jack18JackThreadedDriver9SetMasterEb @377
    _ZN4Jack18JackThreadedDriverC1EPNS_10JackDriverE @378
    _ZN4Jack18JackThreadedDriverC2EPNS_10JackDriverE @379
    _ZN4Jack18JackThreadedDriverD0Ev @380
    _ZN4Jack18JackThreadedDriverD1Ev @381
    _ZN4Jack18JackThreadedDriverD2Ev @382
    _ZN4Jack19JackClientInterfaceD0Ev @383
    _ZN4Jack19JackClientInterfaceD1Ev @384
    _ZN4Jack19JackDriverInterfaceD0Ev @385
    _ZN4Jack19JackDriverInterfaceD1Ev @386
    _ZN4Jack19JackTransportEngine10CycleBeginEjy @387
    _ZN4Jack19JackTransportEngine11SyncTimeoutEjj @388
    _ZN4Jack19JackTransportEngine12CopyPositionEP15jack_position_tS2_ @389
    _ZN4Jack19JackTransportEngine13RequestNewPosEP15jack_position_t @390
    _ZN4Jack19JackTransportEngine13ResetTimebaseEi @391
    _ZN4Jack19JackTransportEngine14ReadCurrentPosEP15jack_position_t @392
    _ZN4Jack19JackTransportEngine15CheckAllRollingEPPNS_19JackClientInterfaceE @393
    _ZN4Jack19JackTransportEngine15GetCurrentFrameEv @394
    _ZN4Jack19JackTransportEngine15MakeAllLocatingEPPNS_19JackClientInterfaceE @395
    _ZN4Jack19JackTransportEngine15MakeAllStoppingEPPNS_19JackClientInterfaceE @396
    _ZN4Jack19JackTransportEngine17SetTimebaseMasterEib @397
    _ZN4Jack19JackTransportEngine23MakeAllStartingLocatingEPPNS_19JackClientInterfaceE @398
    _ZN4Jack19JackTransportEngine5QueryEP15jack_position_t @399
    _ZN4Jack19JackTransportEngine8CycleEndEPPNS_19JackClientInterfaceEjj @400
    _ZN4Jack19JackTransportEngineC1Ev @401
    _ZN4Jack19JackTransportEngineC2Ev @402
    _ZN4Jack19PacketHeaderDisplayEPNS_14_packet_headerE @403
    _ZN4Jack20SessionParamsDisplayEPNS_15_session_paramsE @404
    _ZN4Jack21JackConnectionManager10DisconnectEjj @405
    _ZN4Jack21JackConnectionManager10InitRefNumEi @406
    _ZN4Jack21JackConnectionManager10ResetGraphEPNS_16JackClientTimingE @407
    _ZN4Jack21JackConnectionManager12AddInputPortEij @408
    _ZN4Jack21JackConnectionManager12ResumeRefNumEPNS_17JackClientControlEPNS_16JackWinSemaphoreEPNS_16JackClientTimingE @409
    _ZN4Jack21JackConnectionManager13AddOutputPortEij @410
    _ZN4Jack21JackConnectionManager13DirectConnectEii @411
    _ZN4Jack21JackConnectionManager13GetInputPortsEi @412
    _ZN4Jack21JackConnectionManager13SuspendRefNumEPNS_17JackClientControlEPNS_16JackWinSemaphoreEPNS_16JackClientTimingEl @413
    _ZN4Jack21JackConnectionManager14GetOutputPortsEi @414
    _ZN4Jack21JackConnectionManager15RemoveInputPortEij @415
    _ZN4Jack21JackConnectionManager16DirectDisconnectEii @416
    _ZN4Jack21JackConnectionManager16RemoveOutputPortEij @417
    _ZN4Jack21JackConnectionManager19DecDirectConnectionEjj @418
    _ZN4Jack21JackConnectionManager19IncDirectConnectionEjj @419
    _ZN4Jack21JackConnectionManager21DecFeedbackConnectionEjj @420
    _ZN4Jack21JackConnectionManager21IncFeedbackConnectionEjj @421
    _ZN4Jack21JackConnectionManager7ConnectEjj @422
    _ZN4Jack21JackConnectionManagerC1Ev @423
    _ZN4Jack21JackConnectionManagerC2Ev @424
    _ZN4Jack21JackConnectionManagerD1Ev @425
    _ZN4Jack21JackConnectionManagerD2Ev @426
    _ZN4Jack21JackNetSlaveInterface13InitRenderingEv @427
    _ZN4Jack21JackNetSlaveInterface13fSlaveCounterE @428 DATA
    _ZN4Jack21JackNetSlaveInterface14InitConnectionEv @429
    _ZN4Jack21JackNetSlaveInterface16DecodeSyncPacketEv @430
    _ZN4Jack21JackNetSlaveInterface16EncodeSyncPacketEv @431
    _ZN4Jack21JackNetSlaveInterface17SendStartToMasterEv @432
    _ZN4Jack21JackNetSlaveInterface21SendAvailableToMasterEv @433
    _ZN4Jack21JackNetSlaveInterface4InitEv @434
    _ZN4Jack21JackNetSlaveInterface4RecvEji @435
    _ZN4Jack21JackNetSlaveInterface4SendEji @436
    _ZN4Jack21JackNetSlaveInterface8DataRecvEv @437
    _ZN4Jack21JackNetSlaveInterface8DataSendEv @438
    _ZN4Jack21JackNetSlaveInterface8SyncRecvEv @439
    _ZN4Jack21JackNetSlaveInterface8SyncSendEv @440
    _ZN4Jack21JackNetSlaveInterface9SetParamsEv @441
    _ZN4Jack21JackNetSlaveInterfaceD0Ev @442
    _ZN4Jack21JackNetSlaveInterfaceD1Ev @443
    _ZN4Jack22JackNetMasterInterface12SetRxTimeoutEv @444
    _ZN4Jack22JackNetMasterInterface16DecodeSyncPacketEv @445
    _ZN4Jack22JackNetMasterInterface16EncodeSyncPacketEv @446
    _ZN4Jack22JackNetMasterInterface4ExitEv @447
    _ZN4Jack22JackNetMasterInterface4InitEv @448
    _ZN4Jack22JackNetMasterInterface4RecvEji @449
    _ZN4Jack22JackNetMasterInterface4SendEji @450
    _ZN4Jack22JackNetMasterInterface8DataRecvEv @451
    _ZN4Jack22JackNetMasterInterface8DataSendEv @452
    _ZN4Jack22JackNetMasterInterface8SyncRecvEv @453
    _ZN4Jack22JackNetMasterInterface8SyncSendEv @454
    _ZN4Jack22JackNetMasterInterface9IsSynchedEv @455
    _ZN4Jack22JackNetMasterInterface9SetParamsEv @456
    _ZN4Jack22JackNetMasterInterfaceD0Ev @457
    _ZN4Jack22JackNetMasterInterfaceD1Ev @458
    _ZN4Jack22JackWaitThreadedDriver17JackDriverStarter7ExecuteEv @459
    _ZN4Jack22JackWaitThreadedDriver17JackDriverStarterD0Ev @460
    _ZN4Jack22JackWaitThreadedDriver17JackDriverStarterD1Ev @461
    _ZN4Jack22JackWaitThreadedDriver4InitEv @462
    _ZN4Jack22JackWaitThreadedDriver7ExecuteEv @463
    _ZN4Jack22JackWaitThreadedDriverD0Ev @464
    _ZN4Jack22JackWaitThreadedDriverD1Ev @465
    _ZN4Jack23NetTransportDataDisplayEPNS_19_net_transport_dataE @466
    _ZN4Jack25JackDriverClientInterfaceD0Ev @467
    _ZN4Jack25JackDriverClientInterfaceD1Ev @468
    _ZN4Jack25JackRestartThreadedDriver7ExecuteEv @469
    _ZN4Jack25JackRestartThreadedDriverD0Ev @470
    _ZN4Jack25JackRestartThreadedDriverD1Ev @471
    _ZN4Jack8JackPort10GetAliasesEPKPc @472
    _ZN4Jack8JackPort10MixBuffersEPPvij @473
    _ZN4Jack8JackPort10NameEqualsEPKc @474
    _ZN4Jack8JackPort10SetLatencyEj @475
    _ZN4Jack8JackPort10UnsetAliasEPKc @476
    _ZN4Jack8JackPort11ClearBufferEj @477
    _ZN4Jack8JackPort13EnsureMonitorEb @478
    _ZN4Jack8JackPort14RequestMonitorEb @479
    _ZN4Jack8JackPort3TieEj @480
    _ZN4Jack8JackPort5UnTieEv @481
    _ZN4Jack8JackPort7ReleaseEv @482
    _ZN4Jack8JackPort7SetNameEPKc @483
    _ZN4Jack8JackPort8AllocateEiPKcS2_13JackPortFlags @484
    _ZN4Jack8JackPort8SetAliasEPKc @485
    _ZN4Jack8JackPortC1Ev @486
    _ZN4Jack8JackPortC2Ev @487
    _ZN4Jack9JackTimer11Frames2TimeEjj @488
    _ZN4Jack9JackTimer11Time2FramesEyj @489
    _ZN4Jack9JackTimer21FramesSinceCycleStartEyj @490
    _ZN4Jack9JackTimerC1Ev @491
    _ZN4Jack9JackTimerC2Ev @492
    _ZN4Jack9JackTools11RewriteNameEPKcPc @493
    _ZN4Jack9JackTools12CleanupFilesEPKc @494
    _ZN4Jack9JackTools17DefaultServerNameEv @495
    _ZN4Jack9JackTools6GetPIDEv @496
    _ZN4Jack9JackTools6GetUIDEv @497
    _ZN4Jack9JackTools7UserDirEv @498
    _ZN4Jack9JackTools9GetTmpdirEv @499
    _ZN4Jack9JackTools9ServerDirEPKcPc @500
    _ZNK4Jack10JackDriver10IsRealTimeEv @501
    _ZNK4Jack10JackDriver16GetClientControlEv @502
    _ZNK4Jack14JackMidiBuffer12MaxEventSizeEv @503
    _ZNK4Jack18JackThreadedDriver10IsRealTimeEv @504
    _ZNK4Jack18JackThreadedDriver16GetClientControlEv @505
    _ZNK4Jack21JackConnectionManager10IsLoopPathEjj @506
    _ZNK4Jack21JackConnectionManager11IsConnectedEjj @507
    _ZNK4Jack21JackConnectionManager13IsLoopPathAuxEii @508
    _ZNK4Jack21JackConnectionManager14GetConnectionsEj @509
    _ZNK4Jack21JackConnectionManager14GetInputRefNumEj @510
    _ZNK4Jack21JackConnectionManager15GetOutputRefNumEj @511
    _ZNK4Jack21JackConnectionManager18IsDirectConnectionEii @512
    _ZNK4Jack21JackConnectionManager20IsFeedbackConnectionEjj @513
    _ZNK4Jack8JackPort10GetLatencyEv @514
    _ZNK4Jack8JackPort12GetShortNameEv @515
    _ZNK4Jack8JackPort15GetTotalLatencyEv @516
    _ZNK4Jack8JackPort7GetNameEv @517
    _ZNK4Jack8JackPort7GetTypeEv @518
    _ZNK4Jack8JackPort8GetFlagsEv @519
    _ZNK4Jack8JackPort9GetRefNumEv @520
    _ZTVN4Jack10JackDriverE @521 DATA
    _ZTVN4Jack13JackExceptionE @522 DATA
    _ZTVN4Jack14JackMidiDriverE @523 DATA
    _ZTVN4Jack15JackAudioDriverE @524 DATA
    _ZTVN4Jack16JackNetExceptionE @525 DATA
    _ZTVN4Jack16JackNetInterfaceE @526 DATA
    _ZTVN4Jack18JackThreadedDriverE @527 DATA
    _ZTVN4Jack19JackClientInterfaceE @528 DATA
    _ZTVN4Jack19JackDriverInterfaceE @529 DATA
    _ZTVN4Jack21JackNetSlaveInterfaceE @530 DATA
    _ZTVN4Jack22JackNetMasterInterfaceE @531 DATA
    _ZTVN4Jack22JackWaitThreadedDriver17JackDriverStarterE @532 DATA
    _ZTVN4Jack22JackWaitThreadedDriverE @533 DATA
    _ZTVN4Jack25JackDriverClientInterfaceE @534 DATA
    _ZTVN4Jack25JackRestartThreadedDriverE @535 DATA
    _ZThn4_N4Jack10JackDriver12ClientNotifyEiPKciiii @536
    _ZThn4_N4Jack10JackDriver5CloseEv @537
    _ZThn4_N4Jack10JackDriverD0Ev @538
    _ZThn4_N4Jack10JackDriverD1Ev @539
    _ZThn4_N4Jack14JackMidiDriverD0Ev @540
    _ZThn4_N4Jack14JackMidiDriverD1Ev @541
    _ZThn4_N4Jack15JackAudioDriverD0Ev @542
    _ZThn4_N4Jack15JackAudioDriverD1Ev @543
    _ZThn4_N4Jack18JackThreadedDriver12ClientNotifyEiPKciiii @544
    _ZThn4_N4Jack18JackThreadedDriver5CloseEv @545
    _ZThn4_N4Jack18JackThreadedDriverD0Ev @546
    _ZThn4_N4Jack18JackThreadedDriverD1Ev @547
    _ZThn4_N4Jack22JackWaitThreadedDriverD0Ev @548
    _ZThn4_N4Jack22JackWaitThreadedDriverD1Ev @549
    _ZThn4_N4Jack25JackDriverClientInterfaceD0Ev @550
    _ZThn4_N4Jack25JackDriverClientInterfaceD1Ev @551
    _ZThn4_N4Jack25JackRestartThreadedDriverD0Ev @552
    _ZThn4_N4Jack25JackRestartThreadedDriverD1Ev @553
    _ZThn4_NK4Jack10JackDriver16GetClientControlEv @554
    _ZThn4_NK4Jack18JackThreadedDriver16GetClientControlEv @555
    _ZThn8_N4Jack18JackThreadedDriver4InitEv @556
    _ZThn8_N4Jack18JackThreadedDriver7ExecuteEv @557
    _ZThn8_N4Jack18JackThreadedDriverD0Ev @558
    _ZThn8_N4Jack18JackThreadedDriverD1Ev @559
    _ZThn8_N4Jack22JackWaitThreadedDriver4InitEv @560
    _ZThn8_N4Jack22JackWaitThreadedDriver7ExecuteEv @561
    _ZThn8_N4Jack22JackWaitThreadedDriverD0Ev @562
    _ZThn8_N4Jack22JackWaitThreadedDriverD1Ev @563
    _ZThn8_N4Jack25JackRestartThreadedDriver7ExecuteEv @564
    _ZThn8_N4Jack25JackRestartThreadedDriverD0Ev @565
    _ZThn8_N4Jack25JackRestartThreadedDriverD1Ev @566
    default_jack_error_callback @567
    default_jack_info_callback @568
    driver_get_descriptor @569
    driver_initialize @570
    jack_acquire_real_time_scheduling @571
    jack_activate @572
    jack_client_close @573
    jack_client_create_thread @574
    jack_client_kill_thread @575
    jack_client_max_real_time_priority @576
    jack_client_name_size @577
    jack_client_new @578
    jack_client_open @579
    jack_client_open_aux @580
    jack_client_real_time_priority @581
    jack_client_stop_thread @582
    jack_client_thread_id @583
    jack_connect @584
    jack_cpu_load @585
    jack_cycle_signal @586
    jack_cycle_wait @587
    jack_deactivate @588
    jack_disconnect @589
    jack_drop_real_time_scheduling @590
    jack_engine_takeover_timebase @591
    jack_error @592
    jack_error_callback @593 DATA
    jack_frame_time @594
    jack_frames_since_cycle_start @595
    jack_frames_to_time @596
    jack_free @597
    jack_get_buffer_size @598
    jack_get_client_name @599
    jack_get_client_pid @600
    jack_get_current_transport_frame @601
    jack_get_internal_client_name @602
    jack_get_max_delayed_usecs @603
    jack_get_ports @604
    jack_get_sample_rate @605
    jack_get_time @606
    jack_get_transport_info @607
    jack_get_version @608
    jack_get_version_string @609
    jack_get_xrun_delayed_usecs @610
    jack_info @611
    jack_info_callback @612 DATA
    jack_internal_client_close @613
    jack_internal_client_handle @614
    jack_internal_client_load @615
    jack_internal_client_load_aux @616
    jack_internal_client_new @617
    jack_internal_client_unload @618
    jack_is_realtime @619
    jack_last_frame_time @620
    jack_log @621
    jack_midi_clear_buffer @622
    jack_midi_event_get @623
    jack_midi_event_reserve @624
    jack_midi_event_write @625
    jack_midi_get_event_count @626
    jack_midi_get_lost_event_count @627
    jack_midi_max_event_size @628
    jack_on_shutdown @629
    jack_parse_driver_params @630
    jack_port_by_id @631
    jack_port_by_name @632
    jack_port_connected @633
    jack_port_connected_to @634
    jack_port_disconnect @635
    jack_port_ensure_monitor @636
    jack_port_flags @637
    jack_port_get_aliases @638
    jack_port_get_all_connections @639
    jack_port_get_buffer @640
    jack_port_get_connections @641
    jack_port_get_latency @642
    jack_port_get_total_latency @643
    jack_port_is_mine @644
    jack_port_monitoring_input @645
    jack_port_name @646
    jack_port_name_size @647
    jack_port_register @648
    jack_port_request_monitor @649
    jack_port_request_monitor_by_name @650
    jack_port_set_alias @651
    jack_port_set_latency @652
    jack_port_set_name @653
    jack_port_short_name @654
    jack_port_tie @655
    jack_port_type @656
    jack_port_type_id @657
    jack_port_type_size @658
    jack_port_unregister @659
    jack_port_unset_alias @660
    jack_port_untie @661
    jack_recompute_total_latencies @662
    jack_recompute_total_latency @663
    jack_release_timebase @664
    jack_reset_max_delayed_usecs @665
    jack_ringbuffer_create @666
    jack_ringbuffer_free @667
    jack_ringbuffer_get_read_vector @668
    jack_ringbuffer_get_write_vector @669
    jack_ringbuffer_mlock @670
    jack_ringbuffer_peek @671
    jack_ringbuffer_read @672
    jack_ringbuffer_read_advance @673
    jack_ringbuffer_read_space @674
    jack_ringbuffer_reset @675
    jack_ringbuffer_reset_size @676
    jack_ringbuffer_write @677
    jack_ringbuffer_write_advance @678
    jack_ringbuffer_write_space @679
    jack_set_buffer_size @680
    jack_set_buffer_size_callback @681
    jack_set_client_registration_callback @682
    jack_set_error_function @683
    jack_set_freewheel @684
    jack_set_freewheel_callback @685
    jack_set_graph_order_callback @686
    jack_set_info_function @687
    jack_set_port_connect_callback @688
    jack_set_port_registration_callback @689
    jack_set_port_rename_callback @690
    jack_set_process_callback @691
    jack_set_process_thread @692
    jack_set_sample_rate_callback @693
    jack_set_sync_callback @694
    jack_set_sync_timeout @695
    jack_set_thread_init_callback @696
    jack_set_timebase_callback @697
    jack_set_transport_info @698
    jack_set_xrun_callback @699
    jack_thread_wait @700
    jack_time_to_frames @701
    jack_transport_locate @702
    jack_transport_query @703
    jack_transport_reposition @704
    jack_transport_start @705
    jack_transport_stop @706
    jackctl_driver_get_name @707
    jackctl_driver_get_parameters @708
    jackctl_internal_get_name @709
    jackctl_internal_get_parameters @710
    jackctl_parameter_constraint_is_fake_value @711
    jackctl_parameter_constraint_is_strict @712
    jackctl_parameter_get_default_value @713
    jackctl_parameter_get_enum_constraint_description @714
    jackctl_parameter_get_enum_constraint_value @715
    jackctl_parameter_get_enum_constraints_count @716
    jackctl_parameter_get_id @717
    jackctl_parameter_get_long_description @718
    jackctl_parameter_get_name @719
    jackctl_parameter_get_range_constraint @720
    jackctl_parameter_get_short_description @721
    jackctl_parameter_get_type @722
    jackctl_parameter_get_value @723
    jackctl_parameter_has_enum_constraint @724
    jackctl_parameter_has_range_constraint @725
    jackctl_parameter_is_set @726
    jackctl_parameter_reset @727
    jackctl_parameter_set_value @728
    jackctl_server_add_slave @729
    jackctl_server_create @730
    jackctl_server_destroy @731
    jackctl_server_get_drivers_list @732
    jackctl_server_get_internals_list @733
    jackctl_server_get_parameters @734
    jackctl_server_load_internal @735
    jackctl_server_remove_slave @736
    jackctl_server_start @737
    jackctl_server_stop @738
    jackctl_server_switch_master @739
    jackctl_server_unload_internal @740
    jackctl_setup_signals @741
    jackctl_wait_signals @742
    set_threaded_log_function @743
    silent_jack_error_callback @744
    silent_jack_info_callback @745
